; Function Attrs: nounwind uwtable
define ptr @l_Lean_findModuleOf_x3f___rarg(ptr noundef %0, ptr noundef %1, ptr noundef %2, ptr noundef %3) #0 {
  %5 = getelementptr inbounds nuw i8, ptr %0, i64 8
  %6 = getelementptr inbounds nuw i8, ptr %0, i64 16
  %7 = load ptr, ptr %6, align 8, !tbaa !10
  %8 = ptrtoint ptr %7 to i64
  %9 = and i64 %8, 1
  %.not = icmp eq i64 %9, 0
  br i1 %.not, label %10, label %lean_inc.exit36

10:                                               ; preds = %4
  %.val.i = load i32, ptr %7, align 4, !tbaa !4
  %11 = icmp sgt i32 %.val.i, 0
  br i1 %11, label %12, label %14, !prof !9

12:                                               ; preds = %10
  %13 = add nuw i32 %.val.i, 1
  store i32 %13, ptr %7, align 4, !tbaa !4
  br label %lean_inc.exit36

14:                                               ; preds = %10
  %.not.i37 = icmp eq i32 %.val.i, 0
  br i1 %.not.i37, label %lean_inc.exit36, label %15

15:                                               ; preds = %14
  tail call void @lean_inc_ref_cold(ptr noundef nonnull %7) #4
  br label %lean_inc.exit36

lean_inc.exit36:                                  ; preds = %15, %14, %12, %4
  %16 = load ptr, ptr %5, align 8, !tbaa !10
  %17 = ptrtoint ptr %16 to i64
  %18 = and i64 %17, 1
  %.not56 = icmp eq i64 %18, 0
  br i1 %.not56, label %19, label %lean_inc.exit35

19:                                               ; preds = %lean_inc.exit36
  %.val.i38 = load i32, ptr %16, align 4, !tbaa !4
  %20 = icmp sgt i32 %.val.i38, 0
  br i1 %20, label %21, label %23, !prof !9

21:                                               ; preds = %19
  %22 = add nuw i32 %.val.i38, 1
  store i32 %22, ptr %16, align 4, !tbaa !4
  br label %lean_inc.exit35

23:                                               ; preds = %19
  %.not.i39 = icmp eq i32 %.val.i38, 0
  br i1 %.not.i39, label %lean_inc.exit35, label %24

24:                                               ; preds = %23
  tail call void @lean_inc_ref_cold(ptr noundef nonnull %16) #4
  br label %lean_inc.exit35

lean_inc.exit35:                                  ; preds = %24, %23, %21, %lean_inc.exit36
  %25 = getelementptr inbounds nuw i8, ptr %16, i64 8
  %26 = load ptr, ptr %25, align 8, !tbaa !10
  %27 = ptrtoint ptr %26 to i64
  %28 = and i64 %27, 1
  %.not57 = icmp eq i64 %28, 0
  br i1 %.not57, label %29, label %lean_inc.exit34

29:                                               ; preds = %lean_inc.exit35
  %.val.i41 = load i32, ptr %26, align 4, !tbaa !4
  %30 = icmp sgt i32 %.val.i41, 0
  br i1 %30, label %31, label %33, !prof !9

31:                                               ; preds = %29
  %32 = add nuw i32 %.val.i41, 1
  store i32 %32, ptr %26, align 4, !tbaa !4
  br label %lean_inc.exit34

33:                                               ; preds = %29
  %.not.i42 = icmp eq i32 %.val.i41, 0
  br i1 %.not.i42, label %lean_inc.exit34, label %34

34:                                               ; preds = %33
  tail call void @lean_inc_ref_cold(ptr noundef nonnull %26) #4
  br label %lean_inc.exit34

lean_inc.exit34:                                  ; preds = %34, %33, %31, %lean_inc.exit35
  %35 = ptrtoint ptr %3 to i64
  %36 = and i64 %35, 1
  %.not58 = icmp eq i64 %36, 0
  br i1 %.not58, label %37, label %lean_inc.exit33

37:                                               ; preds = %lean_inc.exit34
  %.val.i44 = load i32, ptr %3, align 4, !tbaa !4
  %38 = icmp sgt i32 %.val.i44, 0
  br i1 %38, label %39, label %41, !prof !9

39:                                               ; preds = %37
  %40 = add nuw i32 %.val.i44, 1
  store i32 %40, ptr %3, align 4, !tbaa !4
  br label %lean_inc.exit33

41:                                               ; preds = %37
  %.not.i45 = icmp eq i32 %.val.i44, 0
  br i1 %.not.i45, label %lean_inc.exit33, label %42

42:                                               ; preds = %41
  tail call void @lean_inc_ref_cold(ptr noundef nonnull %3) #4
  br label %lean_inc.exit33

lean_inc.exit33:                                  ; preds = %42, %41, %39, %lean_inc.exit34
  %43 = ptrtoint ptr %1 to i64
  %44 = and i64 %43, 1
  %.not59 = icmp eq i64 %44, 0
  br i1 %.not59, label %45, label %lean_inc.exit32

45:                                               ; preds = %lean_inc.exit33
  %.val.i47 = load i32, ptr %1, align 4, !tbaa !4
  %46 = icmp sgt i32 %.val.i47, 0
  br i1 %46, label %47, label %49, !prof !9

47:                                               ; preds = %45
  %48 = add nuw i32 %.val.i47, 1
  store i32 %48, ptr %1, align 4, !tbaa !4
  br label %lean_inc.exit32

49:                                               ; preds = %45
  %.not.i48 = icmp eq i32 %.val.i47, 0
  br i1 %.not.i48, label %lean_inc.exit32, label %50

50:                                               ; preds = %49
  tail call void @lean_inc_ref_cold(ptr noundef nonnull %1) #4
  br label %lean_inc.exit32

lean_inc.exit32:                                  ; preds = %50, %49, %47, %lean_inc.exit33
  %51 = tail call ptr @l_Lean_getConstInfo___rarg(ptr noundef nonnull %0, ptr noundef %1, ptr noundef %2, ptr noundef %3)
  %52 = getelementptr inbounds nuw i8, ptr %26, i64 16
  %53 = load ptr, ptr %52, align 8, !tbaa !10
  %54 = ptrtoint ptr %53 to i64
  %55 = and i64 %54, 1
  %.not60 = icmp eq i64 %55, 0
  br i1 %.not60, label %56, label %lean_inc.exit31

56:                                               ; preds = %lean_inc.exit32
  %.val.i50 = load i32, ptr %53, align 4, !tbaa !4
  %57 = icmp sgt i32 %.val.i50, 0
  br i1 %57, label %58, label %60, !prof !9

58:                                               ; preds = %56
  %59 = add nuw i32 %.val.i50, 1
  store i32 %59, ptr %53, align 4, !tbaa !4
  br label %lean_inc.exit31

60:                                               ; preds = %56
  %.not.i51 = icmp eq i32 %.val.i50, 0
  br i1 %.not.i51, label %lean_inc.exit31, label %61

61:                                               ; preds = %60
  tail call void @lean_inc_ref_cold(ptr noundef nonnull %53) #4
  br label %lean_inc.exit31

lean_inc.exit31:                                  ; preds = %61, %60, %58, %lean_inc.exit32
  br i1 %.not57, label %62, label %lean_dec.exit

62:                                               ; preds = %lean_inc.exit31
  %63 = load i32, ptr %26, align 4, !tbaa !4
  %64 = icmp sgt i32 %63, 1
  br i1 %64, label %65, label %67, !prof !9

65:                                               ; preds = %62
  %66 = add nsw i32 %63, -1
  store i32 %66, ptr %26, align 4, !tbaa !4
  br label %lean_dec.exit

67:                                               ; preds = %62
  %.not.i = icmp eq i32 %63, 0
  br i1 %.not.i, label %lean_dec.exit, label %68

68:                                               ; preds = %67
  tail call void @lean_dec_ref_cold(ptr noundef nonnull %26) #4
  br label %lean_dec.exit

lean_dec.exit:                                    ; preds = %68, %67, %65, %lean_inc.exit31
  %69 = tail call ptr @lean_apply_4(ptr noundef %53, ptr noundef nonnull inttoptr (i64 1 to ptr), ptr noundef nonnull inttoptr (i64 1 to ptr), ptr noundef nonnull inttoptr (i64 1 to ptr), ptr noundef %51) #4
  br i1 %.not, label %70, label %lean_inc.exit

70:                                               ; preds = %lean_dec.exit
  %.val.i53 = load i32, ptr %7, align 4, !tbaa !4
  %71 = icmp sgt i32 %.val.i53, 0
  br i1 %71, label %72, label %74, !prof !9

72:                                               ; preds = %70
  %73 = add nuw i32 %.val.i53, 1
  store i32 %73, ptr %7, align 4, !tbaa !4
  br label %lean_inc.exit

74:                                               ; preds = %70
  %.not.i54 = icmp eq i32 %.val.i53, 0
  br i1 %.not.i54, label %lean_inc.exit, label %75

75:                                               ; preds = %74
  tail call void @lean_inc_ref_cold(ptr noundef nonnull %7) #4
  br label %lean_inc.exit

lean_inc.exit:                                    ; preds = %75, %74, %72, %lean_dec.exit
  tail call void @lean_inc_heartbeat() #4
  %76 = tail call noalias ptr @mi_malloc_small(i64 noundef 56) #4
  %77 = icmp eq ptr %76, null
  br i1 %77, label %78, label %lean_alloc_closure.exit

78:                                               ; preds = %lean_inc.exit
  tail call void @lean_internal_panic_out_of_memory() #5
  unreachable

lean_alloc_closure.exit:                          ; preds = %lean_inc.exit
  %79 = getelementptr inbounds nuw i8, ptr %76, i64 4
  store i32 1, ptr %76, align 4, !tbaa !4
  store i32 -184549320, ptr %79, align 4
  %80 = getelementptr inbounds nuw i8, ptr %76, i64 8
  store ptr @l_Lean_findModuleOf_x3f___rarg___lambda__3___boxed, ptr %80, align 8, !tbaa !10
  %81 = getelementptr inbounds nuw i8, ptr %76, i64 16
  store i16 5, ptr %81, align 8, !tbaa !12
  %82 = getelementptr inbounds nuw i8, ptr %76, i64 18
  store i16 4, ptr %82, align 2, !tbaa !12
  %83 = getelementptr inbounds nuw i8, ptr %76, i64 24
  store ptr %1, ptr %83, align 8, !tbaa !10
  %84 = getelementptr inbounds nuw i8, ptr %76, i64 32
  store ptr %3, ptr %84, align 8, !tbaa !10
  %85 = getelementptr inbounds nuw i8, ptr %76, i64 40
  store ptr %16, ptr %85, align 8, !tbaa !10
  %86 = getelementptr inbounds nuw i8, ptr %76, i64 48
  store ptr %7, ptr %86, align 8, !tbaa !10
  %87 = tail call ptr @lean_apply_4(ptr noundef %7, ptr noundef nonnull inttoptr (i64 1 to ptr), ptr noundef nonnull inttoptr (i64 1 to ptr), ptr noundef %69, ptr noundef nonnull %76) #4
  ret ptr %87
}